ccopy_reg
_reconstructor
p0
(cpaillier.paillier
PublicKey
p1
c__builtin__
object
p2
Ntp3
Rp4
(dp5
S'n_sq'
p6
L42018251047351678273156476581595811084577380958828332604584086524978885491969L
sS'g'
p7
L204983538478951226912090371913180488064L
sS'n'
p8
L204983538478951226912090371913180488063L
sb.