ccopy_reg
_reconstructor
p0
(cpaillier.paillier
PrivateKey
p1
c__builtin__
object
p2
Ntp3
Rp4
(dp5
S'm'
p6
L83916647525123502034471590405945404615L
sS'l'
p7
L138933701531069773820038009345608011640L
sb.